; Function Attrs: mustprogress uwtable
define noundef nonnull ptr @_Z36grpc_md_only_test_credentials_createPKcS0_(ptr noundef %md_key, ptr noundef %md_value) local_unnamed_addr #3 personality ptr @__gxx_personality_v0 {
entry:
  %ref.tmp.i.i2.i = alloca %struct.grpc_slice, align 8
  %ref.tmp.i.i.i = alloca %struct.grpc_slice, align 8
  %call = tail call noalias noundef nonnull dereferenceable(88) ptr @_Znwm(i64 noundef 88) #22
  %refs_.i.i.i = getelementptr inbounds i8, ptr %call, i64 8
  store i64 1, ptr %refs_.i.i.i, align 8
  %min_security_level_.i.i = getelementptr inbounds i8, ptr %call, i64 16
  store i32 0, ptr %min_security_level_.i.i, align 8
  store ptr getelementptr inbounds ({ [9 x ptr] }, ptr @_ZTV29grpc_md_only_test_credentials, i64 0, i32 0, i64 2), ptr %call, align 8
  %key_.i = getelementptr inbounds i8, ptr %call, i64 24
  %call.i.i = tail call i64 @strlen(ptr noundef nonnull dereferenceable(1) %md_key) #25, !noalias !32
  call void @llvm.lifetime.start.p0(i64 32, ptr nonnull %ref.tmp.i.i.i), !noalias !32
  invoke void @grpc_slice_from_copied_buffer(ptr nonnull sret(%struct.grpc_slice) align 8 %ref.tmp.i.i.i, ptr noundef %md_key, i64 noundef %call.i.i)
          to label %.noexc unwind label %lpad

.noexc:                                           ; preds = %entry
  call void @llvm.memcpy.p0.p0.i64(ptr noundef nonnull align 8 dereferenceable(32) %key_.i, ptr noundef nonnull align 8 dereferenceable(32) %ref.tmp.i.i.i, i64 32, i1 false)
  call void @llvm.lifetime.end.p0(i64 32, ptr nonnull %ref.tmp.i.i.i), !noalias !32
  %call.i3.i = call i64 @strlen(ptr noundef nonnull dereferenceable(1) %md_value) #25, !noalias !35
  call void @llvm.lifetime.start.p0(i64 32, ptr nonnull %ref.tmp.i.i2.i), !noalias !35
  invoke void @grpc_slice_from_copied_buffer(ptr nonnull sret(%struct.grpc_slice) align 8 %ref.tmp.i.i2.i, ptr noundef %md_value, i64 noundef %call.i3.i)
          to label %invoke.cont unwind label %lpad2.i

lpad2.i:                                          ; preds = %.noexc
  %0 = landingpad { ptr, i32 }
          cleanup
  call void @_ZN9grpc_core5SliceD2Ev(ptr noundef nonnull align 8 dereferenceable(32) %key_.i) #21
  br label %lpad.body

invoke.cont:                                      ; preds = %.noexc
  %value_.i = getelementptr inbounds i8, ptr %call, i64 56
  call void @llvm.memcpy.p0.p0.i64(ptr noundef nonnull align 8 dereferenceable(32) %value_.i, ptr noundef nonnull align 8 dereferenceable(32) %ref.tmp.i.i2.i, i64 32, i1 false)
  call void @llvm.lifetime.end.p0(i64 32, ptr nonnull %ref.tmp.i.i2.i), !noalias !35
  ret ptr %call

lpad:                                             ; preds = %entry
  %1 = landingpad { ptr, i32 }
          cleanup
  br label %lpad.body

lpad.body:                                        ; preds = %lpad2.i, %lpad
  %eh.lpad-body = phi { ptr, i32 } [ %1, %lpad ], [ %0, %lpad2.i ]
  call void @_ZdlPv(ptr noundef nonnull %call) #23
  resume { ptr, i32 } %eh.lpad-body
}